target datalayout = "e-m:e-p270:32:32-p271:32:32-p272:64:64-i64:64-i128:128-f80:128-n8:16:32:64-S128"
target triple = "x86_64-pc-linux-gnu"

%"class.Imf_3_4::ImageChannel" = type { ptr, ptr, i32, i32, i8, i32, i32, i64 }

@_ZTVN7Imf_3_412ImageChannelE = unnamed_addr constant { [6 x ptr] } { [6 x ptr] [ptr null, ptr @_ZTIN7Imf_3_412ImageChannelE, ptr @__cxa_pure_virtual, ptr @_ZN7Imf_3_412ImageChannelD1Ev, ptr @_ZN7Imf_3_412ImageChannelD0Ev, ptr @_ZN7Imf_3_412ImageChannel6resizeEv] }, align 8

; Function Attrs: mustprogress nounwind uwtable
define void @_ZN7Imf_3_412ImageChannelC2ERNS_10ImageLevelEiib(ptr noundef nonnull align 8 dereferenceable(48) %0, ptr noundef nonnull align 8 dereferenceable(40) %1, i32 noundef %2, i32 noundef %3, i1 noundef zeroext %4) unnamed_addr #4 align 2 {
  %6 = alloca ptr, align 8
  %7 = alloca ptr, align 8
  %8 = alloca i32, align 4
  %9 = alloca i32, align 4
  %10 = alloca i8, align 1
  store ptr %0, ptr %6, align 8, !tbaa !3
  store ptr %1, ptr %7, align 8, !tbaa !8
  store i32 %2, ptr %8, align 4, !tbaa !10
  store i32 %3, ptr %9, align 4, !tbaa !10
  %11 = zext i1 %4 to i8
  store i8 %11, ptr %10, align 1, !tbaa !12
  %12 = load ptr, ptr %6, align 8
  store ptr getelementptr inbounds inrange(-16, 32) ({ [6 x ptr] }, ptr @_ZTVN7Imf_3_412ImageChannelE, i32 0, i32 0, i32 2), ptr %12, align 8, !tbaa !14
  %13 = getelementptr inbounds nuw %"class.Imf_3_4::ImageChannel", ptr %12, i32 0, i32 1
  %14 = load ptr, ptr %7, align 8, !tbaa !8
  store ptr %14, ptr %13, align 8, !tbaa !8
  %15 = getelementptr inbounds nuw %"class.Imf_3_4::ImageChannel", ptr %12, i32 0, i32 2
  %16 = load i32, ptr %8, align 4, !tbaa !10
  store i32 %16, ptr %15, align 8, !tbaa !16
  %17 = getelementptr inbounds nuw %"class.Imf_3_4::ImageChannel", ptr %12, i32 0, i32 3
  %18 = load i32, ptr %9, align 4, !tbaa !10
  store i32 %18, ptr %17, align 4, !tbaa !19
  %19 = getelementptr inbounds nuw %"class.Imf_3_4::ImageChannel", ptr %12, i32 0, i32 4
  %20 = load i8, ptr %10, align 1, !tbaa !12, !range !20, !noundef !21
  %21 = trunc i8 %20 to i1
  %22 = zext i1 %21 to i8
  store i8 %22, ptr %19, align 8, !tbaa !22
  %23 = getelementptr inbounds nuw %"class.Imf_3_4::ImageChannel", ptr %12, i32 0, i32 5
  store i32 0, ptr %23, align 4, !tbaa !23
  %24 = getelementptr inbounds nuw %"class.Imf_3_4::ImageChannel", ptr %12, i32 0, i32 6
  store i32 0, ptr %24, align 8, !tbaa !24
  %25 = getelementptr inbounds nuw %"class.Imf_3_4::ImageChannel", ptr %12, i32 0, i32 7
  store i64 0, ptr %25, align 8, !tbaa !25
  ret void
}