; Function Attrs: mustprogress nofree norecurse nosync nounwind willreturn memory(argmem: write) uwtable
define void @_ZN7Imf_3_412ImageChannelC2ERNS_10ImageLevelEiib(ptr noundef nonnull writeonly align 8 captures(none) dereferenceable(48) initializes((0, 25), (28, 36), (40, 48)) %0, ptr noundef nonnull align 8 dereferenceable(40) %1, i32 noundef %2, i32 noundef %3, i1 noundef zeroext %4) unnamed_addr #3 align 2 {
  %6 = zext i1 %4 to i8
  store ptr getelementptr inbounds nuw inrange(-16, 32) (i8, ptr @_ZTVN7Imf_3_412ImageChannelE, i64 16), ptr %0, align 8, !tbaa !3
  %7 = getelementptr inbounds nuw i8, ptr %0, i64 8
  store ptr %1, ptr %7, align 8, !tbaa !6
  %8 = getelementptr inbounds nuw i8, ptr %0, i64 16
  store i32 %2, ptr %8, align 8, !tbaa !10
  %9 = getelementptr inbounds nuw i8, ptr %0, i64 20
  store i32 %3, ptr %9, align 4, !tbaa !15
  %10 = getelementptr inbounds nuw i8, ptr %0, i64 24
  store i8 %6, ptr %10, align 8, !tbaa !16
  %11 = getelementptr inbounds nuw i8, ptr %0, i64 28
  store i32 0, ptr %11, align 4, !tbaa !17
  %12 = getelementptr inbounds nuw i8, ptr %0, i64 32
  store i32 0, ptr %12, align 8, !tbaa !18
  %13 = getelementptr inbounds nuw i8, ptr %0, i64 40
  store i64 0, ptr %13, align 8, !tbaa !19
  ret void
}